; Function Attrs: mustprogress uwtable
define void @_ZN13MainStatusBar13manageProfileEv(ptr noundef nonnull align 8 dereferenceable(512) %0) local_unnamed_addr #0 align 2 personality ptr @__gxx_personality_v0 {
  %2 = alloca %class.QVariant, align 8
  %3 = tail call noundef ptr @_ZNK7QObject6senderEv(ptr noundef nonnull align 8 dereferenceable(16) %0)
  %4 = tail call noundef ptr @_ZNK11QMetaObject4castEPK7QObject(ptr noundef nonnull align 8 dereferenceable(56) @_ZN7QAction16staticMetaObjectE, ptr noundef %3)
  %.not = icmp eq ptr %4, null
  br i1 %.not, label %15, label %5

5:                                                ; preds = %1
  %6 = tail call noalias noundef nonnull dereferenceable(120) ptr @_Znwm(i64 noundef 120) #13
  invoke void @_ZN13ProfileDialogC1EP7QWidget(ptr noundef nonnull align 8 dereferenceable(120) %6, ptr noundef nonnull %0)
          to label %7 unwind label %11

7:                                                ; preds = %5
  tail call void @_ZN7QWidget12setAttributeEN2Qt15WidgetAttributeEb(ptr noundef nonnull align 8 dereferenceable(40) %6, i32 noundef 55, i1 noundef zeroext true)
  call void @_ZNK7QObject8propertyEPKc(ptr dead_on_unwind nonnull writable sret(%class.QVariant) align 8 %2, ptr noundef nonnull align 8 dereferenceable(16) %4, ptr noundef nonnull @.str.39)
  %8 = invoke noundef i32 @_ZNK8QVariant5toIntEPb(ptr noundef nonnull align 8 dereferenceable(32) %2, ptr noundef null)
          to label %9 unwind label %13

9:                                                ; preds = %7
  call void @_ZN8QVariantD1Ev(ptr noundef nonnull align 8 dereferenceable(32) %2) #12
  %10 = call noundef i32 @_ZN13ProfileDialog10execActionENS_13ProfileActionE(ptr noundef nonnull align 8 dereferenceable(120) %6, i32 noundef %8)
  br label %15

11:                                               ; preds = %5
  %12 = landingpad { ptr, i32 }
          cleanup
  tail call void @_ZdlPv(ptr noundef nonnull %6) #14
  br label %16

13:                                               ; preds = %7
  %14 = landingpad { ptr, i32 }
          cleanup
  call void @_ZN8QVariantD1Ev(ptr noundef nonnull align 8 dereferenceable(32) %2) #12
  br label %16

15:                                               ; preds = %9, %1
  ret void

16:                                               ; preds = %13, %11
  %.pn = phi { ptr, i32 } [ %14, %13 ], [ %12, %11 ]
  resume { ptr, i32 } %.pn
}